; Function Attrs: mustprogress uwtable
define void @_ZN6Memory11ResetThreadEj(ptr noundef nonnull readonly align 8 captures(none) dereferenceable(56) %0, i32 noundef %1) local_unnamed_addr #5 align 2 {
  %3 = zext i32 %1 to i64
  %4 = load ptr, ptr %0, align 8
  %5 = getelementptr inbounds nuw ptr, ptr %4, i64 %3
  %6 = load ptr, ptr %5, align 8
  %7 = getelementptr inbounds nuw i8, ptr %6, i64 987984
  %8 = load ptr, ptr %7, align 8
  %9 = load ptr, ptr %8, align 8
  %10 = getelementptr inbounds nuw i8, ptr %9, i64 48
  %11 = load ptr, ptr %10, align 8
  tail call void %11(ptr noundef nonnull align 8 dereferenceable(8) %8, i32 noundef 5)
  %12 = load ptr, ptr %0, align 8
  %13 = getelementptr inbounds nuw ptr, ptr %12, i64 %3
  %14 = load ptr, ptr %13, align 8
  %15 = getelementptr inbounds nuw i8, ptr %14, i64 987984
  %16 = load ptr, ptr %15, align 8
  %17 = load ptr, ptr %16, align 8
  %18 = getelementptr inbounds nuw i8, ptr %17, i64 64
  %19 = load ptr, ptr %18, align 8
  %20 = tail call noundef double %19(ptr noundef nonnull align 8 dereferenceable(8) %16)
  %21 = fadd double %20, 9.600000e+02
  %22 = load ptr, ptr %0, align 8
  %23 = getelementptr inbounds nuw ptr, ptr %22, i64 %3
  %24 = load ptr, ptr %23, align 8
  %25 = getelementptr inbounds nuw i8, ptr %24, i64 4928
  store double %21, ptr %25, align 8
  ret void
}